target datalayout = "e-m:e-p270:32:32-p271:32:32-p272:64:64-i64:64-i128:128-f80:128-n8:16:32:64-S128"
target triple = "x86_64-pc-linux-gnu"

%struct.pem2der_ctx_st = type { ptr }
%struct.evp_cipher_info_st = type { ptr, [16 x i8] }
%struct.pem2der_pass_data_st = type { ptr, ptr }
%struct.ossl_param_st = type { ptr, i32, ptr, i64, i64 }
%struct.pem_name_map_st = type { ptr, i32, ptr, ptr }

@.str = private unnamed_addr constant [68 x i8] c"../openssl/providers/implementations/encode_decode/decode_pem2der.c\00", align 1
@.str.30 = private unnamed_addr constant [10 x i8] c"data-type\00", align 1
@.str.31 = private unnamed_addr constant [15 x i8] c"data-structure\00", align 1
@.str.32 = private unnamed_addr constant [5 x i8] c"data\00", align 1
@.str.33 = private unnamed_addr constant [5 x i8] c"type\00", align 1

; Function Attrs: nounwind uwtable
define internal i32 @read_pem(ptr noundef %0, ptr noundef %1, ptr noundef %2, ptr noundef %3, ptr noundef %4, ptr noundef %5) #0 {
  %7 = alloca i32, align 4
  %8 = alloca ptr, align 8
  %9 = alloca ptr, align 8
  %10 = alloca ptr, align 8
  %11 = alloca ptr, align 8
  %12 = alloca ptr, align 8
  %13 = alloca ptr, align 8
  %14 = alloca ptr, align 8
  %15 = alloca i32, align 4
  %16 = alloca i32, align 4
  store ptr %0, ptr %8, align 8, !tbaa !33
  store ptr %1, ptr %9, align 8, !tbaa !12
  store ptr %2, ptr %10, align 8, !tbaa !34
  store ptr %3, ptr %11, align 8, !tbaa !34
  store ptr %4, ptr %12, align 8, !tbaa !34
  store ptr %5, ptr %13, align 8, !tbaa !36
  call void @llvm.lifetime.start.p0(i64 8, ptr %14) #5
  %17 = load ptr, ptr %8, align 8, !tbaa !33
  %18 = load ptr, ptr %9, align 8, !tbaa !12
  %19 = call ptr @ossl_bio_new_from_core_bio(ptr noundef %17, ptr noundef %18)
  store ptr %19, ptr %14, align 8, !tbaa !38
  call void @llvm.lifetime.start.p0(i64 4, ptr %15) #5
  %20 = load ptr, ptr %14, align 8, !tbaa !38
  %21 = icmp eq ptr %20, null
  br i1 %21, label %22, label %23

22:                                               ; preds = %6
  store i32 0, ptr %7, align 4
  store i32 1, ptr %16, align 4
  br label %35

23:                                               ; preds = %6
  %24 = load ptr, ptr %14, align 8, !tbaa !38
  %25 = load ptr, ptr %10, align 8, !tbaa !34
  %26 = load ptr, ptr %11, align 8, !tbaa !34
  %27 = load ptr, ptr %12, align 8, !tbaa !34
  %28 = load ptr, ptr %13, align 8, !tbaa !36
  %29 = call i32 @PEM_read_bio(ptr noundef %24, ptr noundef %25, ptr noundef %26, ptr noundef %27, ptr noundef %28)
  %30 = icmp sgt i32 %29, 0
  %31 = zext i1 %30 to i32
  store i32 %31, ptr %15, align 4, !tbaa !14
  %32 = load ptr, ptr %14, align 8, !tbaa !38
  %33 = call i32 @BIO_free(ptr noundef %32)
  %34 = load i32, ptr %15, align 4, !tbaa !14
  store i32 %34, ptr %7, align 4
  store i32 1, ptr %16, align 4
  br label %35

35:                                               ; preds = %23, %22
  call void @llvm.lifetime.end.p0(i64 4, ptr %15) #5
  call void @llvm.lifetime.end.p0(i64 8, ptr %14) #5
  %36 = load i32, ptr %7, align 4
  ret i32 %36
}

; Function Attrs: nounwind uwtable
define internal i32 @pem2der_decode(ptr noundef %0, ptr noundef %1, i32 noundef %2, ptr noundef %3, ptr noundef %4, ptr noundef %5, ptr noundef %6) #0 {
  %8 = alloca i32, align 4
  %9 = alloca ptr, align 8
  %10 = alloca ptr, align 8
  %11 = alloca i32, align 4
  %12 = alloca ptr, align 8
  %13 = alloca ptr, align 8
  %14 = alloca ptr, align 8
  %15 = alloca ptr, align 8
  %16 = alloca ptr, align 8
  %17 = alloca ptr, align 8
  %18 = alloca ptr, align 8
  %19 = alloca i64, align 8
  %20 = alloca ptr, align 8
  %21 = alloca i64, align 8
  %22 = alloca i32, align 4
  %23 = alloca i32, align 4
  %24 = alloca i32, align 4
  %25 = alloca %struct.evp_cipher_info_st, align 8
  %26 = alloca %struct.pem2der_pass_data_st, align 8
  %27 = alloca [5 x %struct.ossl_param_st], align 16
  %28 = alloca ptr, align 8
  %29 = alloca ptr, align 8
  %30 = alloca ptr, align 8
  %31 = alloca %struct.ossl_param_st, align 8
  %32 = alloca %struct.ossl_param_st, align 8
  %33 = alloca %struct.ossl_param_st, align 8
  %34 = alloca %struct.ossl_param_st, align 8
  %35 = alloca %struct.ossl_param_st, align 8
  store ptr %0, ptr %9, align 8, !tbaa !3
  store ptr %1, ptr %10, align 8, !tbaa !12
  store i32 %2, ptr %11, align 4, !tbaa !14
  store ptr %3, ptr %12, align 8, !tbaa !3
  store ptr %4, ptr %13, align 8, !tbaa !3
  store ptr %5, ptr %14, align 8, !tbaa !3
  store ptr %6, ptr %15, align 8, !tbaa !3
  call void @llvm.lifetime.start.p0(i64 8, ptr %16) #5
  %36 = load ptr, ptr %9, align 8, !tbaa !3
  store ptr %36, ptr %16, align 8, !tbaa !7
  call void @llvm.lifetime.start.p0(i64 8, ptr %17) #5
  store ptr null, ptr %17, align 8, !tbaa !16
  call void @llvm.lifetime.start.p0(i64 8, ptr %18) #5
  store ptr null, ptr %18, align 8, !tbaa !16
  call void @llvm.lifetime.start.p0(i64 8, ptr %19) #5
  call void @llvm.lifetime.start.p0(i64 8, ptr %20) #5
  store ptr null, ptr %20, align 8, !tbaa !16
  call void @llvm.lifetime.start.p0(i64 8, ptr %21) #5
  store i64 0, ptr %21, align 8, !tbaa !18
  call void @llvm.lifetime.start.p0(i64 4, ptr %22) #5
  store i32 0, ptr %22, align 4, !tbaa !14
  call void @llvm.lifetime.start.p0(i64 4, ptr %23) #5
  store i32 0, ptr %23, align 4, !tbaa !14
  %37 = load ptr, ptr %16, align 8, !tbaa !7
  %38 = getelementptr inbounds nuw %struct.pem2der_ctx_st, ptr %37, i32 0, i32 0
  %39 = load ptr, ptr %38, align 8, !tbaa !9
  %40 = load ptr, ptr %10, align 8, !tbaa !12
  %41 = call i32 @read_pem(ptr noundef %39, ptr noundef %40, ptr noundef %17, ptr noundef %18, ptr noundef %20, ptr noundef %21)
  %42 = icmp sgt i32 %41, 0
  %43 = zext i1 %42 to i32
  store i32 %43, ptr %22, align 4, !tbaa !14
  %44 = load i32, ptr %22, align 4, !tbaa !14
  %45 = icmp ne i32 %44, 0
  br i1 %45, label %47, label %46

46:                                               ; preds = %7
  store i32 1, ptr %8, align 4
  store i32 1, ptr %24, align 4
  br label %133

47:                                               ; preds = %7
  %48 = load ptr, ptr %18, align 8, !tbaa !16
  %49 = call i64 @strlen(ptr noundef %48) #6
  %50 = icmp ugt i64 %49, 10
  br i1 %50, label %51, label %68

51:                                               ; preds = %47
  call void @llvm.lifetime.start.p0(i64 24, ptr %25) #5
  call void @llvm.lifetime.start.p0(i64 16, ptr %26) #5
  store i32 0, ptr %22, align 4, !tbaa !14
  %52 = load ptr, ptr %14, align 8, !tbaa !3
  %53 = getelementptr inbounds nuw %struct.pem2der_pass_data_st, ptr %26, i32 0, i32 0
  store ptr %52, ptr %53, align 8, !tbaa !20
  %54 = load ptr, ptr %15, align 8, !tbaa !3
  %55 = getelementptr inbounds nuw %struct.pem2der_pass_data_st, ptr %26, i32 0, i32 1
  store ptr %54, ptr %55, align 8, !tbaa !22
  %56 = load ptr, ptr %18, align 8, !tbaa !16
  %57 = call i32 @PEM_get_EVP_CIPHER_INFO(ptr noundef %56, ptr noundef %25)
  %58 = icmp ne i32 %57, 0
  br i1 %58, label %59, label %63

59:                                               ; preds = %51
  %60 = load ptr, ptr %20, align 8, !tbaa !16
  %61 = call i32 @PEM_do_header(ptr noundef %25, ptr noundef %60, ptr noundef %21, ptr noundef @pem2der_pass_helper, ptr noundef %26)
  %62 = icmp ne i32 %61, 0
  br i1 %62, label %64, label %63

63:                                               ; preds = %59, %51
  store i32 2, ptr %24, align 4
  br label %65

64:                                               ; preds = %59
  store i32 0, ptr %24, align 4
  br label %65

65:                                               ; preds = %63, %64
  call void @llvm.lifetime.end.p0(i64 16, ptr %26) #5
  call void @llvm.lifetime.end.p0(i64 24, ptr %25) #5
  %66 = load i32, ptr %24, align 4
  switch i32 %66, label %133 [
    i32 0, label %67
    i32 2, label %128
  ]

67:                                               ; preds = %65
  br label %68

68:                                               ; preds = %67, %47
  store i32 1, ptr %22, align 4, !tbaa !14
  store i64 0, ptr %19, align 8, !tbaa !18
  br label %69

69:                                               ; preds = %82, %68
  %70 = load i64, ptr %19, align 8, !tbaa !18
  %71 = icmp ult i64 %70, 17
  br i1 %71, label %72, label %85

72:                                               ; preds = %69
  %73 = load ptr, ptr %17, align 8, !tbaa !16
  %74 = load i64, ptr %19, align 8, !tbaa !18
  %75 = getelementptr inbounds nuw [17 x %struct.pem_name_map_st], ptr @pem2der_decode.pem_name_map, i64 0, i64 %74
  %76 = getelementptr inbounds nuw %struct.pem_name_map_st, ptr %75, i32 0, i32 0
  %77 = load ptr, ptr %76, align 16, !tbaa !23
  %78 = call i32 @strcmp(ptr noundef %73, ptr noundef %77) #6
  %79 = icmp eq i32 %78, 0
  br i1 %79, label %80, label %81

80:                                               ; preds = %72
  br label %85

81:                                               ; preds = %72
  br label %82

82:                                               ; preds = %81
  %83 = load i64, ptr %19, align 8, !tbaa !18
  %84 = add i64 %83, 1
  store i64 %84, ptr %19, align 8, !tbaa !18
  br label %69, !llvm.loop !25

85:                                               ; preds = %80, %69
  %86 = load i64, ptr %19, align 8, !tbaa !18
  %87 = icmp ult i64 %86, 17
  br i1 %87, label %88, label %127

88:                                               ; preds = %85
  call void @llvm.lifetime.start.p0(i64 200, ptr %27) #5
  call void @llvm.lifetime.start.p0(i64 8, ptr %28) #5
  %89 = getelementptr inbounds [5 x %struct.ossl_param_st], ptr %27, i64 0, i64 0
  store ptr %89, ptr %28, align 8, !tbaa !27
  call void @llvm.lifetime.start.p0(i64 8, ptr %29) #5
  %90 = load i64, ptr %19, align 8, !tbaa !18
  %91 = getelementptr inbounds nuw [17 x %struct.pem_name_map_st], ptr @pem2der_decode.pem_name_map, i64 0, i64 %90
  %92 = getelementptr inbounds nuw %struct.pem_name_map_st, ptr %91, i32 0, i32 2
  %93 = load ptr, ptr %92, align 16, !tbaa !29
  store ptr %93, ptr %29, align 8, !tbaa !16
  call void @llvm.lifetime.start.p0(i64 8, ptr %30) #5
  %94 = load i64, ptr %19, align 8, !tbaa !18
  %95 = getelementptr inbounds nuw [17 x %struct.pem_name_map_st], ptr @pem2der_decode.pem_name_map, i64 0, i64 %94
  %96 = getelementptr inbounds nuw %struct.pem_name_map_st, ptr %95, i32 0, i32 3
  %97 = load ptr, ptr %96, align 8, !tbaa !30
  store ptr %97, ptr %30, align 8, !tbaa !16
  %98 = load i64, ptr %19, align 8, !tbaa !18
  %99 = getelementptr inbounds nuw [17 x %struct.pem_name_map_st], ptr @pem2der_decode.pem_name_map, i64 0, i64 %98
  %100 = getelementptr inbounds nuw %struct.pem_name_map_st, ptr %99, i32 0, i32 1
  %101 = load i32, ptr %100, align 8, !tbaa !31
  store i32 %101, ptr %23, align 4, !tbaa !14
  %102 = load ptr, ptr %29, align 8, !tbaa !16
  %103 = icmp ne ptr %102, null
  br i1 %103, label %104, label %108

104:                                              ; preds = %88
  %105 = load ptr, ptr %28, align 8, !tbaa !27
  %106 = getelementptr inbounds nuw %struct.ossl_param_st, ptr %105, i32 1
  store ptr %106, ptr %28, align 8, !tbaa !27
  call void @llvm.lifetime.start.p0(i64 40, ptr %31) #5
  %107 = load ptr, ptr %29, align 8, !tbaa !16
  call void @OSSL_PARAM_construct_utf8_string(ptr dead_on_unwind writable sret(%struct.ossl_param_st) align 8 %31, ptr noundef @.str.30, ptr noundef %107, i64 noundef 0)
  call void @llvm.memcpy.p0.p0.i64(ptr align 8 %105, ptr align 8 %31, i64 40, i1 false), !tbaa.struct !32
  call void @llvm.lifetime.end.p0(i64 40, ptr %31) #5
  br label %108

108:                                              ; preds = %104, %88
  %109 = load ptr, ptr %30, align 8, !tbaa !16
  %110 = icmp ne ptr %109, null
  br i1 %110, label %111, label %115

111:                                              ; preds = %108
  %112 = load ptr, ptr %28, align 8, !tbaa !27
  %113 = getelementptr inbounds nuw %struct.ossl_param_st, ptr %112, i32 1
  store ptr %113, ptr %28, align 8, !tbaa !27
  call void @llvm.lifetime.start.p0(i64 40, ptr %32) #5
  %114 = load ptr, ptr %30, align 8, !tbaa !16
  call void @OSSL_PARAM_construct_utf8_string(ptr dead_on_unwind writable sret(%struct.ossl_param_st) align 8 %32, ptr noundef @.str.31, ptr noundef %114, i64 noundef 0)
  call void @llvm.memcpy.p0.p0.i64(ptr align 8 %112, ptr align 8 %32, i64 40, i1 false), !tbaa.struct !32
  call void @llvm.lifetime.end.p0(i64 40, ptr %32) #5
  br label %115

115:                                              ; preds = %111, %108
  %116 = load ptr, ptr %28, align 8, !tbaa !27
  %117 = getelementptr inbounds nuw %struct.ossl_param_st, ptr %116, i32 1
  store ptr %117, ptr %28, align 8, !tbaa !27
  call void @llvm.lifetime.start.p0(i64 40, ptr %33) #5
  %118 = load ptr, ptr %20, align 8, !tbaa !16
  %119 = load i64, ptr %21, align 8, !tbaa !18
  call void @OSSL_PARAM_construct_octet_string(ptr dead_on_unwind writable sret(%struct.ossl_param_st) align 8 %33, ptr noundef @.str.32, ptr noundef %118, i64 noundef %119)
  call void @llvm.memcpy.p0.p0.i64(ptr align 8 %116, ptr align 8 %33, i64 40, i1 false), !tbaa.struct !32
  call void @llvm.lifetime.end.p0(i64 40, ptr %33) #5
  %120 = load ptr, ptr %28, align 8, !tbaa !27
  %121 = getelementptr inbounds nuw %struct.ossl_param_st, ptr %120, i32 1
  store ptr %121, ptr %28, align 8, !tbaa !27
  call void @llvm.lifetime.start.p0(i64 40, ptr %34) #5
  call void @OSSL_PARAM_construct_int(ptr dead_on_unwind writable sret(%struct.ossl_param_st) align 8 %34, ptr noundef @.str.33, ptr noundef %23)
  call void @llvm.memcpy.p0.p0.i64(ptr align 8 %120, ptr align 8 %34, i64 40, i1 false), !tbaa.struct !32
  call void @llvm.lifetime.end.p0(i64 40, ptr %34) #5
  %122 = load ptr, ptr %28, align 8, !tbaa !27
  call void @llvm.lifetime.start.p0(i64 40, ptr %35) #5
  call void @OSSL_PARAM_construct_end(ptr dead_on_unwind writable sret(%struct.ossl_param_st) align 8 %35)
  call void @llvm.memcpy.p0.p0.i64(ptr align 8 %122, ptr align 8 %35, i64 40, i1 false), !tbaa.struct !32
  call void @llvm.lifetime.end.p0(i64 40, ptr %35) #5
  %123 = load ptr, ptr %12, align 8, !tbaa !3
  %124 = getelementptr inbounds [5 x %struct.ossl_param_st], ptr %27, i64 0, i64 0
  %125 = load ptr, ptr %13, align 8, !tbaa !3
  %126 = call i32 %123(ptr noundef %124, ptr noundef %125)
  store i32 %126, ptr %22, align 4, !tbaa !14
  call void @llvm.lifetime.end.p0(i64 8, ptr %30) #5
  call void @llvm.lifetime.end.p0(i64 8, ptr %29) #5
  call void @llvm.lifetime.end.p0(i64 8, ptr %28) #5
  call void @llvm.lifetime.end.p0(i64 200, ptr %27) #5
  br label %127

127:                                              ; preds = %115, %85
  br label %128

128:                                              ; preds = %127, %65
  %129 = load ptr, ptr %17, align 8, !tbaa !16
  call void @CRYPTO_free(ptr noundef %129, ptr noundef @.str, i32 noundef 209)
  %130 = load ptr, ptr %18, align 8, !tbaa !16
  call void @CRYPTO_free(ptr noundef %130, ptr noundef @.str, i32 noundef 210)
  %131 = load ptr, ptr %20, align 8, !tbaa !16
  call void @CRYPTO_free(ptr noundef %131, ptr noundef @.str, i32 noundef 211)
  %132 = load i32, ptr %22, align 4, !tbaa !14
  store i32 %132, ptr %8, align 4
  store i32 1, ptr %24, align 4
  br label %133

133:                                              ; preds = %128, %65, %46
  call void @llvm.lifetime.end.p0(i64 4, ptr %23) #5
  call void @llvm.lifetime.end.p0(i64 4, ptr %22) #5
  call void @llvm.lifetime.end.p0(i64 8, ptr %21) #5
  call void @llvm.lifetime.end.p0(i64 8, ptr %20) #5
  call void @llvm.lifetime.end.p0(i64 8, ptr %19) #5
  call void @llvm.lifetime.end.p0(i64 8, ptr %18) #5
  call void @llvm.lifetime.end.p0(i64 8, ptr %17) #5
  call void @llvm.lifetime.end.p0(i64 8, ptr %16) #5
  %134 = load i32, ptr %8, align 4
  ret i32 %134
}