; Function Attrs: nounwind uwtable
define internal i32 @pem2der_decode(ptr noundef readonly captures(none) %0, ptr noundef %1, i32 %2, ptr noundef readonly captures(none) %3, ptr noundef %4, ptr noundef %5, ptr noundef %6) #0 {
  %8 = alloca ptr, align 8
  %9 = alloca ptr, align 8
  %10 = alloca ptr, align 8
  %11 = alloca i64, align 8
  %12 = alloca i32, align 4
  %13 = alloca %struct.evp_cipher_info_st, align 8
  %14 = alloca %struct.pem2der_pass_data_st, align 8
  %15 = alloca [5 x %struct.ossl_param_st], align 16
  %16 = alloca %struct.ossl_param_st, align 8
  %17 = alloca %struct.ossl_param_st, align 8
  %18 = alloca %struct.ossl_param_st, align 8
  %19 = alloca %struct.ossl_param_st, align 8
  call void @llvm.lifetime.start.p0(i64 8, ptr nonnull %8) #5
  store ptr null, ptr %8, align 8, !tbaa !9
  call void @llvm.lifetime.start.p0(i64 8, ptr nonnull %9) #5
  store ptr null, ptr %9, align 8, !tbaa !9
  call void @llvm.lifetime.start.p0(i64 8, ptr nonnull %10) #5
  store ptr null, ptr %10, align 8, !tbaa !9
  call void @llvm.lifetime.start.p0(i64 8, ptr nonnull %11) #5
  store i64 0, ptr %11, align 8, !tbaa !11
  call void @llvm.lifetime.start.p0(i64 4, ptr nonnull %12) #5
  store i32 0, ptr %12, align 4, !tbaa !13
  %20 = load ptr, ptr %0, align 8, !tbaa !3
  %21 = tail call ptr @ossl_bio_new_from_core_bio(ptr noundef %20, ptr noundef %1) #5
  %22 = icmp eq ptr %21, null
  br i1 %22, label %read_pem.exit.thread, label %read_pem.exit

read_pem.exit:                                    ; preds = %7
  %23 = call i32 @PEM_read_bio(ptr noundef nonnull %21, ptr noundef nonnull %8, ptr noundef nonnull %9, ptr noundef nonnull %10, ptr noundef nonnull %11) #5
  %24 = icmp slt i32 %23, 1
  %25 = call i32 @BIO_free(ptr noundef nonnull %21) #5
  br i1 %24, label %read_pem.exit.thread, label %26

26:                                               ; preds = %read_pem.exit
  %27 = load ptr, ptr %9, align 8, !tbaa !9
  %28 = call i64 @strlen(ptr noundef nonnull dereferenceable(1) %27) #6
  %29 = icmp ugt i64 %28, 10
  br i1 %29, label %30, label %37

30:                                               ; preds = %26
  call void @llvm.lifetime.start.p0(i64 24, ptr nonnull %13) #5
  call void @llvm.lifetime.start.p0(i64 16, ptr nonnull %14) #5
  store ptr %5, ptr %14, align 8, !tbaa !15
  %31 = getelementptr inbounds nuw i8, ptr %14, i64 8
  store ptr %6, ptr %31, align 8, !tbaa !17
  %32 = call i32 @PEM_get_EVP_CIPHER_INFO(ptr noundef nonnull %27, ptr noundef nonnull %13) #5
  %.not32 = icmp eq i32 %32, 0
  br i1 %.not32, label %.thread, label %33

33:                                               ; preds = %30
  %34 = load ptr, ptr %10, align 8, !tbaa !9
  %35 = call i32 @PEM_do_header(ptr noundef nonnull %13, ptr noundef %34, ptr noundef nonnull %11, ptr noundef nonnull @pem2der_pass_helper, ptr noundef nonnull %14) #5
  %.not33 = icmp eq i32 %35, 0
  br i1 %.not33, label %.thread, label %36

.thread:                                          ; preds = %30, %33
  call void @llvm.lifetime.end.p0(i64 16, ptr nonnull %14) #5
  call void @llvm.lifetime.end.p0(i64 24, ptr nonnull %13) #5
  br label %.critedge

36:                                               ; preds = %33
  call void @llvm.lifetime.end.p0(i64 16, ptr nonnull %14) #5
  call void @llvm.lifetime.end.p0(i64 24, ptr nonnull %13) #5
  br label %37

37:                                               ; preds = %36, %26
  %38 = load ptr, ptr %8, align 8, !tbaa !9
  br label %41

39:                                               ; preds = %41
  %40 = add nuw nsw i64 %.02641, 1
  %exitcond.not = icmp eq i64 %40, 17
  br i1 %exitcond.not, label %.critedge, label %41, !llvm.loop !18

41:                                               ; preds = %37, %39
  %.02641 = phi i64 [ 0, %37 ], [ %40, %39 ]
  %42 = getelementptr inbounds nuw [17 x %struct.pem_name_map_st], ptr @pem2der_decode.pem_name_map, i64 0, i64 %.02641
  %43 = load ptr, ptr %42, align 16, !tbaa !20
  %44 = call i32 @strcmp(ptr noundef nonnull dereferenceable(1) %38, ptr noundef nonnull dereferenceable(1) %43) #6
  %45 = icmp eq i32 %44, 0
  br i1 %45, label %46, label %39

46:                                               ; preds = %41
  call void @llvm.lifetime.start.p0(i64 200, ptr nonnull %15) #5
  %47 = getelementptr inbounds nuw i8, ptr %42, i64 16
  %48 = load ptr, ptr %47, align 16, !tbaa !22
  %49 = getelementptr inbounds nuw i8, ptr %42, i64 24
  %50 = load ptr, ptr %49, align 8, !tbaa !23
  %51 = getelementptr inbounds nuw i8, ptr %42, i64 8
  %52 = load i32, ptr %51, align 8, !tbaa !24
  store i32 %52, ptr %12, align 4, !tbaa !13
  %.not34 = icmp eq ptr %48, null
  br i1 %.not34, label %55, label %53

53:                                               ; preds = %46
  %54 = getelementptr inbounds nuw i8, ptr %15, i64 40
  call void @OSSL_PARAM_construct_utf8_string(ptr dead_on_unwind nonnull writable sret(%struct.ossl_param_st) align 8 %15, ptr noundef nonnull @.str.30, ptr noundef nonnull %48, i64 noundef 0) #5
  br label %55

55:                                               ; preds = %53, %46
  %.027 = phi ptr [ %54, %53 ], [ %15, %46 ]
  %.not35 = icmp eq ptr %50, null
  br i1 %.not35, label %58, label %56

56:                                               ; preds = %55
  %57 = getelementptr inbounds nuw i8, ptr %.027, i64 40
  call void @llvm.lifetime.start.p0(i64 40, ptr nonnull %16) #5
  call void @OSSL_PARAM_construct_utf8_string(ptr dead_on_unwind nonnull writable sret(%struct.ossl_param_st) align 8 %16, ptr noundef nonnull @.str.31, ptr noundef nonnull %50, i64 noundef 0) #5
  call void @llvm.memcpy.p0.p0.i64(ptr noundef nonnull align 8 dereferenceable(40) %.027, ptr noundef nonnull align 8 dereferenceable(40) %16, i64 40, i1 false), !tbaa.struct !25
  call void @llvm.lifetime.end.p0(i64 40, ptr nonnull %16) #5
  br label %58

58:                                               ; preds = %56, %55
  %.1 = phi ptr [ %57, %56 ], [ %.027, %55 ]
  %59 = getelementptr inbounds nuw i8, ptr %.1, i64 40
  call void @llvm.lifetime.start.p0(i64 40, ptr nonnull %17) #5
  %60 = load ptr, ptr %10, align 8, !tbaa !9
  %61 = load i64, ptr %11, align 8, !tbaa !11
  call void @OSSL_PARAM_construct_octet_string(ptr dead_on_unwind nonnull writable sret(%struct.ossl_param_st) align 8 %17, ptr noundef nonnull @.str.32, ptr noundef %60, i64 noundef %61) #5
  call void @llvm.memcpy.p0.p0.i64(ptr noundef nonnull align 8 dereferenceable(40) %.1, ptr noundef nonnull align 8 dereferenceable(40) %17, i64 40, i1 false), !tbaa.struct !25
  call void @llvm.lifetime.end.p0(i64 40, ptr nonnull %17) #5
  %62 = getelementptr inbounds nuw i8, ptr %.1, i64 80
  call void @llvm.lifetime.start.p0(i64 40, ptr nonnull %18) #5
  call void @OSSL_PARAM_construct_int(ptr dead_on_unwind nonnull writable sret(%struct.ossl_param_st) align 8 %18, ptr noundef nonnull @.str.33, ptr noundef nonnull %12) #5
  call void @llvm.memcpy.p0.p0.i64(ptr noundef nonnull align 8 dereferenceable(40) %59, ptr noundef nonnull align 8 dereferenceable(40) %18, i64 40, i1 false), !tbaa.struct !25
  call void @llvm.lifetime.end.p0(i64 40, ptr nonnull %18) #5
  call void @llvm.lifetime.start.p0(i64 40, ptr nonnull %19) #5
  call void @OSSL_PARAM_construct_end(ptr dead_on_unwind nonnull writable sret(%struct.ossl_param_st) align 8 %19) #5
  call void @llvm.memcpy.p0.p0.i64(ptr noundef nonnull align 8 dereferenceable(40) %62, ptr noundef nonnull align 8 dereferenceable(40) %19, i64 40, i1 false), !tbaa.struct !25
  call void @llvm.lifetime.end.p0(i64 40, ptr nonnull %19) #5
  %63 = call i32 %3(ptr noundef nonnull %15, ptr noundef %4) #5
  call void @llvm.lifetime.end.p0(i64 200, ptr nonnull %15) #5
  br label %.critedge

.critedge:                                        ; preds = %39, %.thread, %58
  %.029 = phi i32 [ %63, %58 ], [ 0, %.thread ], [ 1, %39 ]
  %64 = load ptr, ptr %8, align 8, !tbaa !9
  call void @CRYPTO_free(ptr noundef %64, ptr noundef nonnull @.str, i32 noundef 209) #5
  %65 = load ptr, ptr %9, align 8, !tbaa !9
  call void @CRYPTO_free(ptr noundef %65, ptr noundef nonnull @.str, i32 noundef 210) #5
  %66 = load ptr, ptr %10, align 8, !tbaa !9
  call void @CRYPTO_free(ptr noundef %66, ptr noundef nonnull @.str, i32 noundef 211) #5
  br label %read_pem.exit.thread

read_pem.exit.thread:                             ; preds = %7, %read_pem.exit, %.critedge
  %.0 = phi i32 [ %.029, %.critedge ], [ 1, %read_pem.exit ], [ 1, %7 ]
  call void @llvm.lifetime.end.p0(i64 4, ptr nonnull %12) #5
  call void @llvm.lifetime.end.p0(i64 8, ptr nonnull %11) #5
  call void @llvm.lifetime.end.p0(i64 8, ptr nonnull %10) #5
  call void @llvm.lifetime.end.p0(i64 8, ptr nonnull %9) #5
  call void @llvm.lifetime.end.p0(i64 8, ptr nonnull %8) #5
  ret i32 %.0
}